target datalayout = "e-m:e-p270:32:32-p271:32:32-p272:64:64-i64:64-i128:128-f80:128-n8:16:32:64-S128"
target triple = "x86_64-pc-linux-gnu"

%struct.lua_TValue = type { %union.Value, [1 x i32], i32 }
%union.Value = type { ptr }
%struct.LuaTable = type { i8, i8, i8, i8, i8, i8, i8, i8, i32, %union.anon, ptr, ptr, ptr, ptr }
%union.anon = type { i32 }
%struct.LuaNode = type { %struct.lua_TValue, %struct.TKey }
%struct.TKey = type { %union.Value, [1 x i32], i32 }

@luaH_dummynode = dso_local constant { %struct.lua_TValue, { %union.Value, [1 x i32], i8, i8, i8, i8 } } zeroinitializer, align 8

; Function Attrs: mustprogress nounwind uwtable
define hidden void @_Z10luaH_clearP8LuaTable(ptr noundef %0) #4 {
  %2 = alloca ptr, align 8
  %3 = alloca i32, align 4
  %4 = alloca i32, align 4
  %5 = alloca i32, align 4
  %6 = alloca ptr, align 8
  store ptr %0, ptr %2, align 8, !tbaa !9
  call void @llvm.lifetime.start.p0(i64 4, ptr %3) #7
  store i32 0, ptr %3, align 4, !tbaa !13
  br label %7

7:                                                ; preds = %22, %1
  %8 = load i32, ptr %3, align 4, !tbaa !13
  %9 = load ptr, ptr %2, align 8, !tbaa !9
  %10 = getelementptr inbounds nuw %struct.LuaTable, ptr %9, i32 0, i32 8
  %11 = load i32, ptr %10, align 8, !tbaa !15
  %12 = icmp slt i32 %8, %11
  br i1 %12, label %14, label %13

13:                                               ; preds = %7
  call void @llvm.lifetime.end.p0(i64 4, ptr %3) #7
  br label %25

14:                                               ; preds = %7
  %15 = load ptr, ptr %2, align 8, !tbaa !9
  %16 = getelementptr inbounds nuw %struct.LuaTable, ptr %15, i32 0, i32 11
  %17 = load ptr, ptr %16, align 8, !tbaa !19
  %18 = load i32, ptr %3, align 4, !tbaa !13
  %19 = sext i32 %18 to i64
  %20 = getelementptr inbounds %struct.lua_TValue, ptr %17, i64 %19
  %21 = getelementptr inbounds nuw %struct.lua_TValue, ptr %20, i32 0, i32 2
  store i32 0, ptr %21, align 4, !tbaa !20
  br label %22

22:                                               ; preds = %14
  %23 = load i32, ptr %3, align 4, !tbaa !13
  %24 = add nsw i32 %23, 1
  store i32 %24, ptr %3, align 4, !tbaa !13
  br label %7, !llvm.loop !88

25:                                               ; preds = %13
  %26 = load ptr, ptr %2, align 8, !tbaa !9
  %27 = getelementptr inbounds nuw %struct.LuaTable, ptr %26, i32 0, i32 9
  %28 = load i32, ptr %27, align 4, !tbaa !22
  %29 = icmp sle i32 %28, 0
  br i1 %29, label %30, label %33

30:                                               ; preds = %25
  %31 = load ptr, ptr %2, align 8, !tbaa !9
  %32 = getelementptr inbounds nuw %struct.LuaTable, ptr %31, i32 0, i32 9
  store i32 0, ptr %32, align 4, !tbaa !22
  br label %33

33:                                               ; preds = %30, %25
  %34 = load ptr, ptr %2, align 8, !tbaa !9
  %35 = getelementptr inbounds nuw %struct.LuaTable, ptr %34, i32 0, i32 12
  %36 = load ptr, ptr %35, align 8, !tbaa !27
  %37 = icmp ne ptr %36, @luaH_dummynode
  br i1 %37, label %38, label %78

38:                                               ; preds = %33
  call void @llvm.lifetime.start.p0(i64 4, ptr %4) #7
  %39 = load ptr, ptr %2, align 8, !tbaa !9
  %40 = getelementptr inbounds nuw %struct.LuaTable, ptr %39, i32 0, i32 6
  %41 = load i8, ptr %40, align 2, !tbaa !26
  %42 = zext i8 %41 to i32
  %43 = shl i32 1, %42
  store i32 %43, ptr %4, align 4, !tbaa !13
  %44 = load i32, ptr %4, align 4, !tbaa !13
  %45 = load ptr, ptr %2, align 8, !tbaa !9
  %46 = getelementptr inbounds nuw %struct.LuaTable, ptr %45, i32 0, i32 9
  store i32 %44, ptr %46, align 4, !tbaa !22
  call void @llvm.lifetime.start.p0(i64 4, ptr %5) #7
  store i32 0, ptr %5, align 4, !tbaa !13
  br label %47

47:                                               ; preds = %74, %38
  %48 = load i32, ptr %5, align 4, !tbaa !13
  %49 = load i32, ptr %4, align 4, !tbaa !13
  %50 = icmp slt i32 %48, %49
  br i1 %50, label %52, label %51

51:                                               ; preds = %47
  call void @llvm.lifetime.end.p0(i64 4, ptr %5) #7
  br label %77

52:                                               ; preds = %47
  call void @llvm.lifetime.start.p0(i64 8, ptr %6) #7
  %53 = load ptr, ptr %2, align 8, !tbaa !9
  %54 = getelementptr inbounds nuw %struct.LuaTable, ptr %53, i32 0, i32 12
  %55 = load ptr, ptr %54, align 8, !tbaa !27
  %56 = load i32, ptr %5, align 4, !tbaa !13
  %57 = sext i32 %56 to i64
  %58 = getelementptr inbounds %struct.LuaNode, ptr %55, i64 %57
  store ptr %58, ptr %6, align 8, !tbaa !31
  %59 = load ptr, ptr %6, align 8, !tbaa !31
  %60 = getelementptr inbounds nuw %struct.LuaNode, ptr %59, i32 0, i32 1
  %61 = getelementptr inbounds nuw %struct.TKey, ptr %60, i32 0, i32 2
  %62 = load i32, ptr %61, align 4
  %63 = and i32 %62, -16
  %64 = or i32 %63, 0
  store i32 %64, ptr %61, align 4
  %65 = load ptr, ptr %6, align 8, !tbaa !31
  %66 = getelementptr inbounds nuw %struct.LuaNode, ptr %65, i32 0, i32 0
  %67 = getelementptr inbounds nuw %struct.lua_TValue, ptr %66, i32 0, i32 2
  store i32 0, ptr %67, align 4, !tbaa !28
  %68 = load ptr, ptr %6, align 8, !tbaa !31
  %69 = getelementptr inbounds nuw %struct.LuaNode, ptr %68, i32 0, i32 1
  %70 = getelementptr inbounds nuw %struct.TKey, ptr %69, i32 0, i32 2
  %71 = load i32, ptr %70, align 4
  %72 = and i32 %71, 15
  %73 = or i32 %72, 0
  store i32 %73, ptr %70, align 4
  call void @llvm.lifetime.end.p0(i64 8, ptr %6) #7
  br label %74

74:                                               ; preds = %52
  %75 = load i32, ptr %5, align 4, !tbaa !13
  %76 = add nsw i32 %75, 1
  store i32 %76, ptr %5, align 4, !tbaa !13
  br label %47, !llvm.loop !89

77:                                               ; preds = %51
  call void @llvm.lifetime.end.p0(i64 4, ptr %4) #7
  br label %78

78:                                               ; preds = %77, %33
  %79 = load ptr, ptr %2, align 8, !tbaa !9
  %80 = getelementptr inbounds nuw %struct.LuaTable, ptr %79, i32 0, i32 3
  store i8 -1, ptr %80, align 1, !tbaa !67
  ret void
}