; Function Attrs: mustprogress nofree norecurse nosync nounwind memory(write, argmem: readwrite, inaccessiblemem: none) uwtable
define hidden void @_Z10luaH_clearP8LuaTable(ptr noundef captures(none) %0) local_unnamed_addr #7 {
  %2 = getelementptr inbounds nuw i8, ptr %0, i64 8
  %3 = load i32, ptr %2, align 8, !tbaa !9
  %4 = icmp sgt i32 %3, 0
  br i1 %4, label %.lr.ph, label %._crit_edge

.lr.ph:                                           ; preds = %1
  %5 = getelementptr inbounds nuw i8, ptr %0, i64 24
  %6 = load ptr, ptr %5, align 8, !tbaa !20
  %wide.trip.count = zext nneg i32 %3 to i64
  br label %10

._crit_edge:                                      ; preds = %10, %1
  %7 = getelementptr inbounds nuw i8, ptr %0, i64 12
  %8 = load i32, ptr %7, align 4, !tbaa !16
  %9 = icmp slt i32 %8, 1
  br i1 %9, label %12, label %13

10:                                               ; preds = %.lr.ph, %10
  %indvars.iv = phi i64 [ 0, %.lr.ph ], [ %indvars.iv.next, %10 ]
  %11 = getelementptr inbounds nuw %struct.lua_TValue, ptr %6, i64 %indvars.iv, i32 2
  store i32 0, ptr %11, align 4, !tbaa !4
  %indvars.iv.next = add nuw nsw i64 %indvars.iv, 1
  %exitcond.not = icmp eq i64 %indvars.iv.next, %wide.trip.count
  br i1 %exitcond.not, label %._crit_edge, label %10, !llvm.loop !72

12:                                               ; preds = %._crit_edge
  store i32 0, ptr %7, align 4, !tbaa !16
  br label %13

13:                                               ; preds = %12, %._crit_edge
  %14 = getelementptr inbounds nuw i8, ptr %0, i64 32
  %15 = load ptr, ptr %14, align 8, !tbaa !17
  %.not = icmp eq ptr %15, @luaH_dummynode
  br i1 %.not, label %.loopexit, label %16

16:                                               ; preds = %13
  %17 = getelementptr inbounds nuw i8, ptr %0, i64 6
  %18 = load i8, ptr %17, align 2, !tbaa !22
  %19 = zext nneg i8 %18 to i32
  %20 = shl nuw i32 1, %19
  store i32 %20, ptr %7, align 4, !tbaa !16
  %.not24 = icmp eq i8 %18, 31
  br i1 %.not24, label %.loopexit, label %.lr.ph23.preheader

.lr.ph23.preheader:                               ; preds = %16
  %smax = tail call i32 @llvm.smax.i32(i32 %20, i32 1)
  %wide.trip.count29 = zext nneg i32 %smax to i64
  br label %.lr.ph23

.lr.ph23:                                         ; preds = %.lr.ph23.preheader, %.lr.ph23
  %indvars.iv26 = phi i64 [ 0, %.lr.ph23.preheader ], [ %indvars.iv.next27, %.lr.ph23 ]
  %21 = load ptr, ptr %14, align 8, !tbaa !17
  %22 = getelementptr inbounds nuw %struct.LuaNode, ptr %21, i64 %indvars.iv26
  %23 = getelementptr inbounds nuw i8, ptr %22, i64 28
  %24 = getelementptr inbounds nuw i8, ptr %22, i64 12
  store i32 0, ptr %24, align 4, !tbaa !24
  store i32 0, ptr %23, align 4
  %indvars.iv.next27 = add nuw nsw i64 %indvars.iv26, 1
  %exitcond30.not = icmp eq i64 %indvars.iv.next27, %wide.trip.count29
  br i1 %exitcond30.not, label %.loopexit, label %.lr.ph23, !llvm.loop !73

.loopexit:                                        ; preds = %.lr.ph23, %16, %13
  %25 = getelementptr inbounds nuw i8, ptr %0, i64 3
  store i8 -1, ptr %25, align 1, !tbaa !63
  ret void
}